; Function Attrs: nofree nounwind uwtable
define internal noalias noundef ptr @make_nitem(ptr noundef readonly captures(none) %0, ptr readnone captures(none) %1) #5 {
  %3 = tail call noalias dereferenceable_or_null(32) ptr @calloc(i64 noundef 1, i64 noundef range(i64 1, 33) 32) #22
  %4 = icmp eq ptr %3, null
  br i1 %4, label %5, label %gv_alloc.exit

5:                                                ; preds = %2
  %6 = load ptr, ptr @stderr, align 8, !tbaa !39
  %7 = tail call i32 (ptr, ptr, ...) @fprintf(ptr noundef %6, ptr noundef nonnull @.str.6, i64 noundef 32) #23
  tail call fastcc void @graphviz_exit() #24
  unreachable

gv_alloc.exit:                                    ; preds = %2
  %8 = getelementptr inbounds nuw i8, ptr %0, i64 16
  %9 = load ptr, ptr %8, align 8, !tbaa !31
  %10 = getelementptr inbounds nuw i8, ptr %3, i64 16
  store ptr %9, ptr %10, align 8, !tbaa !31
  ret ptr %3
}